Certificate:
    Data:
        Version: 3 (0x2)
        Serial Number: 25 (0x19)
        Signature Algorithm: md5WithRSAEncryption
        Issuer: O=NDG, OU=Security, CN=Test CA
        Validity
            Not Before: Jun 29 11:51:27 2010 GMT
            Not After : Jun 29 11:51:27 2011 GMT
        Subject: O=NDG, OU=BADC, OU=Gabriel, CN=testuser
        Subject Public Key Info:
            Public Key Algorithm: rsaEncryption
            RSA Public Key: (2048 bit)
                Modulus (2048 bit):
                    00:e7:4b:d5:98:27:36:1b:61:0a:03:73:83:7b:ce:
                    ff:c8:cc:6e:97:da:d1:a8:20:c0:a9:aa:62:26:f6:
                    f9:18:88:12:54:69:3d:ae:a2:61:0c:43:43:72:75:
                    2f:35:d3:aa:7e:dc:1f:2c:8b:85:3d:03:a4:7e:bf:
                    a2:cc:e6:5e:d8:52:08:fd:8b:ad:99:1b:b4:c9:bb:
                    08:34:d6:8f:ad:22:fd:ed:0d:e7:7b:1e:ce:67:01:
                    06:a1:39:4e:d9:f6:3c:a2:e9:58:f1:98:35:7d:d9:
                    fb:7a:a7:77:73:d8:a5:04:34:f1:de:f9:19:7c:1f:
                    3a:cc:ff:31:19:fb:ee:5f:6c:c4:a0:7d:c9:3d:e7:
                    30:62:6e:33:36:81:6d:40:42:4a:db:1b:14:8c:c5:
                    5d:b3:52:90:4d:bd:8d:50:cb:c1:e8:5d:20:f6:fb:
                    b5:a2:03:ac:fb:81:bd:39:f1:3a:eb:1c:58:e5:a3:
                    a2:80:d4:47:0a:f8:25:e3:f4:5d:1a:81:19:cb:dc:
                    ab:a0:5a:db:81:71:4a:bf:91:f9:4c:32:a0:3a:8b:
                    62:69:eb:2c:39:71:ad:e7:29:40:22:18:02:b3:8f:
                    96:48:0e:8b:42:b0:e6:7b:bd:07:7a:4c:ce:9e:94:
                    a9:71:f8:6f:c2:57:70:15:b6:b7:67:11:33:35:a8:
                    f9:57
                Exponent: 65537 (0x10001)
        X509v3 extensions:
            Netscape Cert Type: 
                SSL Client, SSL Server, S/MIME, Object Signing
    Signature Algorithm: md5WithRSAEncryption
        31:bc:bd:79:5e:9e:8d:f5:dd:8d:3c:c2:dd:2a:99:7f:b1:06:
        29:f2:aa:3f:16:7c:ca:bf:b9:ec:d2:b4:5a:c5:57:98:4b:34:
        ff:88:6d:76:30:68:3e:2a:c9:50:b4:af:92:87:3e:67:f3:02:
        76:f7:e1:48:34:06:8e:4b:f6:4e:a5:3c:9f:ac:6f:0e:f7:ec:
        34:ce:b8:ca:2e:90:0f:f0:cb:2f:2b:6f:76:0a:7f:e3:b0:eb:
        1a:43:cb:84:d8:f3:81:3e:48:4c:fa:f3:fd:e4:32:ad:43:86:
        41:85:00:cf:01:c3:c2:02:5c:1a:28:c3:b9:6c:09:23:bf:2c:
        96:77
-----BEGIN CERTIFICATE-----
MIIChDCCAe2gAwIBAgIBGTANBgkqhkiG9w0BAQQFADAzMQwwCgYDVQQKEwNOREcx
ETAPBgNVBAsTCFNlY3VyaXR5MRAwDgYDVQQDEwdUZXN0IENBMB4XDTEwMDYyOTEx
NTEyN1oXDTExMDYyOTExNTEyN1owQjEMMAoGA1UEChMDTkRHMQ0wCwYDVQQLEwRC
QURDMRAwDgYDVQQLEwdHYWJyaWVsMREwDwYDVQQDEwh0ZXN0dXNlcjCCASIwDQYJ
KoZIhvcNAQEBBQADggEPADCCAQoCggEBAOdL1ZgnNhthCgNzg3vO/8jMbpfa0agg
wKmqYib2+RiIElRpPa6iYQxDQ3J1LzXTqn7cHyyLhT0DpH6/oszmXthSCP2LrZkb
tMm7CDTWj60i/e0N53sezmcBBqE5Ttn2PKLpWPGYNX3Z+3qnd3PYpQQ08d75GXwf
Osz/MRn77l9sxKB9yT3nMGJuMzaBbUBCStsbFIzFXbNSkE29jVDLwehdIPb7taID
rPuBvTnxOuscWOWjooDURwr4JeP0XRqBGcvcq6Ba24FxSr+R+UwyoDqLYmnrLDlx
recpQCIYArOPlkgOi0Kw5nu9B3pMzp6UqXH4b8JXcBW2t2cRMzWo+VcCAwEAAaMV
MBMwEQYJYIZIAYb4QgEBBAQDAgTwMA0GCSqGSIb3DQEBBAUAA4GBADG8vXleno31
3Y08wt0qmX+xBinyqj8WfMq/uezStFrFV5hLNP+IbXYwaD4qyVC0r5KHPmfzAnb3
4Ug0Bo5L9k6lPJ+sbw737DTOuMoukA/wyy8rb3YKf+Ow6xpDy4TY84E+SEz68/3k
Mq1DhkGFAM8Bw8ICXBoow7lsCSO/LJZ3
-----END CERTIFICATE-----
