Certificate:
    Data:
        Version: 3 (0x2)
        Serial Number: 252 (0xfc)
        Signature Algorithm: md5WithRSAEncryption
        Issuer: O=NDG, OU=BADC, CN=Test CA
        Validity
            Not Before: Dec 11 21:33:25 2008 GMT
            Not After : Dec 11 21:33:25 2009 GMT
        Subject: C=UK, ST=Oxfordshire, O=BADC, OU=Security, CN=localhost
        Subject Public Key Info:
            Public Key Algorithm: rsaEncryption
            RSA Public Key: (2048 bit)
                Modulus (2048 bit):
                    00:c0:e0:94:c2:e9:c0:df:96:36:ba:4d:0e:3f:bc:
                    41:51:7b:4f:fe:d8:82:47:52:f8:36:57:35:15:3b:
                    83:77:ba:84:aa:a3:48:f0:03:0b:5a:b7:31:40:8d:
                    3f:87:05:9e:06:c6:72:1f:ca:7d:ed:73:3c:d0:76:
                    4d:3b:32:89:e7:1f:5b:84:27:bf:8b:72:09:2a:d4:
                    40:8d:2c:c4:c3:23:68:6c:f4:62:55:a8:e0:2e:8a:
                    c8:b4:5f:bf:e1:18:d7:6a:a6:1a:90:6d:e6:83:17:
                    10:3a:95:b5:da:0d:44:3f:df:fb:6c:c5:9e:bf:1d:
                    04:5f:1c:16:ce:9e:f7:9d:81:f8:fe:ca:43:82:5f:
                    6b:c8:70:17:f8:e8:f3:74:d9:fb:ac:14:af:99:8f:
                    fd:f3:ad:e2:7e:8d:f3:bd:89:15:f0:39:ea:51:7c:
                    29:81:8c:bc:ba:63:6b:69:e0:c1:46:2f:27:93:83:
                    85:be:8b:bb:aa:b8:76:c3:ec:8a:f6:50:e1:c3:90:
                    9e:47:1d:19:68:40:62:59:13:8b:eb:e8:89:64:20:
                    ec:a3:b7:e7:b2:8f:98:f2:64:b4:aa:6e:d0:f1:73:
                    fc:ea:ed:19:19:67:98:11:f5:95:ca:76:0b:c7:43:
                    35:3c:53:23:b5:67:b0:b5:26:59:d1:c5:3e:4a:d1:
                    70:dd
                Exponent: 65537 (0x10001)
        X509v3 extensions:
            Netscape Cert Type: 
                SSL Client, SSL Server, S/MIME, Object Signing
    Signature Algorithm: md5WithRSAEncryption
        34:a0:99:74:f0:9d:2e:81:7d:a5:2c:d9:72:8d:cb:b1:1f:56:
        ec:97:7d:1c:69:05:db:03:47:9a:ba:32:9d:ec:f9:a3:cf:eb:
        d3:a9:e3:c4:8d:8d:7c:df:60:54:2e:35:8c:8c:30:a5:df:bb:
        33:46:59:04:07:a8:00:0b:18:86:3d:8c:8e:e6:c6:0c:54:f1:
        9e:34:5e:68:07:c5:78:1b:f4:40:ad:1b:70:99:dc:61:3b:e2:
        4a:b2:81:c3:2c:bf:92:48:b6:ab:4b:4c:fd:f3:9d:25:d4:f9:
        2f:3a:e7:47:0f:d7:f7:4f:4d:11:f0:8e:8f:cb:73:ee:18:8e:
        10:7f
-----BEGIN CERTIFICATE-----
MIICmDCCAgGgAwIBAgICAPwwDQYJKoZIhvcNAQEEBQAwLzEMMAoGA1UEChMDTkRH
MQ0wCwYDVQQLEwRCQURDMRAwDgYDVQQDEwdUZXN0IENBMB4XDTA4MTIxMTIxMzMy
NVoXDTA5MTIxMTIxMzMyNVowWTELMAkGA1UEBhMCVUsxFDASBgNVBAgTC094Zm9y
ZHNoaXJlMQ0wCwYDVQQKEwRCQURDMREwDwYDVQQLEwhTZWN1cml0eTESMBAGA1UE
AxMJbG9jYWxob3N0MIIBIjANBgkqhkiG9w0BAQEFAAOCAQ8AMIIBCgKCAQEAwOCU
wunA35Y2uk0OP7xBUXtP/tiCR1L4Nlc1FTuDd7qEqqNI8AMLWrcxQI0/hwWeBsZy
H8p97XM80HZNOzKJ5x9bhCe/i3IJKtRAjSzEwyNobPRiVajgLorItF+/4RjXaqYa
kG3mgxcQOpW12g1EP9/7bMWevx0EXxwWzp73nYH4/spDgl9ryHAX+OjzdNn7rBSv
mY/9863ifo3zvYkV8DnqUXwpgYy8umNraeDBRi8nk4OFvou7qrh2w+yK9lDhw5Ce
Rx0ZaEBiWROL6+iJZCDso7fnso+Y8mS0qm7Q8XP86u0ZGWeYEfWVynYLx0M1PFMj
tWewtSZZ0cU+StFw3QIDAQABoxUwEzARBglghkgBhvhCAQEEBAMCBPAwDQYJKoZI
hvcNAQEEBQADgYEANKCZdPCdLoF9pSzZco3LsR9W7Jd9HGkF2wNHmroynez5o8/r
06njxI2NfN9gVC41jIwwpd+7M0ZZBAeoAAsYhj2MjubGDFTxnjReaAfFeBv0QK0b
cJncYTviSrKBwyy/kki2q0tM/fOdJdT5LzrnRw/X909NEfCOj8tz7hiOEH8=
-----END CERTIFICATE-----
