Certificate:
    Data:
        Version: 3 (0x2)
        Serial Number: 1 (0x1)
        Signature Algorithm: md5WithRSAEncryption
        Issuer: C=UK, ST=Unknown, O=BADC, CN=Calum Byrom
        Validity
            Not Before: Aug  4 11:27:12 2008 GMT
            Not After : Aug  4 11:27:12 2009 GMT
        Subject: C=UK, ST=Unknown, O=BADC, OU=Unknown, CN=Calum Byrom
        Subject Public Key Info:
            Public Key Algorithm: rsaEncryption
            RSA Public Key: (1024 bit)
                Modulus (1024 bit):
                    00:86:4d:95:24:8d:36:ef:69:a5:e7:dc:fc:f3:5f:
                    96:8f:52:db:7b:38:de:1f:c3:e8:29:51:7d:a4:9d:
                    44:ca:62:50:08:2a:20:7f:22:0c:a8:b5:d9:c9:02:
                    b4:6c:3b:8f:e2:05:e5:44:af:aa:75:ac:40:b2:43:
                    3f:31:c7:cc:c5:7c:42:ff:c5:d3:35:b4:15:f0:9f:
                    f9:ca:62:f0:76:3f:8d:01:b1:01:4d:6c:8a:67:ec:
                    c6:d0:5f:31:6c:d4:5c:1f:c0:12:16:19:f6:3d:1a:
                    fb:fa:ea:d3:6a:7f:09:3d:54:5e:77:8e:b6:a8:a8:
                    2a:7a:1b:84:f1:7b:e0:4b:bd
                Exponent: 65537 (0x10001)
        X509v3 extensions:
            X509v3 Basic Constraints: 
                CA:FALSE
            Netscape Comment: 
                OpenSSL Generated Certificate
            X509v3 Subject Key Identifier: 
                F0:47:AC:31:BF:54:1C:5A:D2:0A:20:48:16:ED:46:96:3A:C8:42:82
            X509v3 Authority Key Identifier: 
                keyid:40:D9:2C:C5:A7:28:E4:DB:76:9B:E7:87:CA:CF:F0:DE:69:44:50:A8
                DirName:/C=UK/ST=Unknown/O=BADC/CN=Calum Byrom
                serial:DD:72:F4:FF:F0:F6:84:A7

    Signature Algorithm: md5WithRSAEncryption
        3c:52:76:ca:df:c0:4e:99:26:a0:98:84:cc:6f:d1:5a:04:01:
        78:a3:39:47:aa:f0:8f:5b:d8:45:24:d3:1f:7b:11:9e:88:45:
        9e:89:2b:33:ac:87:28:3c:8b:9e:97:2b:36:ef:34:fc:5c:84:
        8f:76:89:d2:44:4b:4f:80:ae:f3:b5:e8:84:32:52:6a:71:f5:
        00:7f:c5:54:20:d1:a1:ae:ab:6a:b5:49:e9:b2:48:3e:0c:76:
        42:bd:cb:97:5c:df:a3:82:b1:19:4c:a5:61:7f:5e:3a:7d:5b:
        06:8a:ce:eb:88:e9:9f:33:c3:00:f0:11:c7:19:08:65:a2:fd:
        ee:83
-----BEGIN CERTIFICATE-----
MIIC4jCCAkugAwIBAgIBATANBgkqhkiG9w0BAQQFADBEMQswCQYDVQQGEwJVSzEQ
MA4GA1UECBMHVW5rbm93bjENMAsGA1UEChMEQkFEQzEUMBIGA1UEAxMLQ2FsdW0g
Qnlyb20wHhcNMDgwODA0MTEyNzEyWhcNMDkwODA0MTEyNzEyWjBWMQswCQYDVQQG
EwJVSzEQMA4GA1UECBMHVW5rbm93bjENMAsGA1UEChMEQkFEQzEQMA4GA1UECxMH
VW5rbm93bjEUMBIGA1UEAxMLQ2FsdW0gQnlyb20wgZ8wDQYJKoZIhvcNAQEBBQAD
gY0AMIGJAoGBAIZNlSSNNu9ppefc/PNflo9S23s43h/D6ClRfaSdRMpiUAgqIH8i
DKi12ckCtGw7j+IF5USvqnWsQLJDPzHHzMV8Qv/F0zW0FfCf+cpi8HY/jQGxAU1s
imfsxtBfMWzUXB/AEhYZ9j0a+/rq02p/CT1UXneOtqioKnobhPF74Eu9AgMBAAGj
gdEwgc4wCQYDVR0TBAIwADAsBglghkgBhvhCAQ0EHxYdT3BlblNTTCBHZW5lcmF0
ZWQgQ2VydGlmaWNhdGUwHQYDVR0OBBYEFPBHrDG/VBxa0gogSBbtRpY6yEKCMHQG
A1UdIwRtMGuAFEDZLMWnKOTbdpvnh8rP8N5pRFCooUikRjBEMQswCQYDVQQGEwJV
SzEQMA4GA1UECBMHVW5rbm93bjENMAsGA1UEChMEQkFEQzEUMBIGA1UEAxMLQ2Fs
dW0gQnlyb22CCQDdcvT/8PaEpzANBgkqhkiG9w0BAQQFAAOBgQA8UnbK38BOmSag
mITMb9FaBAF4ozlHqvCPW9hFJNMfexGeiEWeiSszrIcoPIuelys27zT8XISPdonS
REtPgK7zteiEMlJqcfUAf8VUINGhrqtqtUnpskg+DHZCvcuXXN+jgrEZTKVhf146
fVsGis7riOmfM8MA8BHHGQhlov3ugw==
-----END CERTIFICATE-----
