Certificate:
    Data:
        Version: 3 (0x2)
        Serial Number: 249 (0xf9)
        Signature Algorithm: md5WithRSAEncryption
        Issuer: O=NDG, OU=BADC, CN=Test CA
        Validity
            Not Before: Jan  4 14:39:29 2008 GMT
            Not After : Jan  3 14:39:29 2009 GMT
        Subject: O=NDG, OU=BADC, OU=Gabriel, CN=testuser
        Subject Public Key Info:
            Public Key Algorithm: rsaEncryption
            RSA Public Key: (2048 bit)
                Modulus (2048 bit):
                    00:e7:4b:d5:98:27:36:1b:61:0a:03:73:83:7b:ce:
                    ff:c8:cc:6e:97:da:d1:a8:20:c0:a9:aa:62:26:f6:
                    f9:18:88:12:54:69:3d:ae:a2:61:0c:43:43:72:75:
                    2f:35:d3:aa:7e:dc:1f:2c:8b:85:3d:03:a4:7e:bf:
                    a2:cc:e6:5e:d8:52:08:fd:8b:ad:99:1b:b4:c9:bb:
                    08:34:d6:8f:ad:22:fd:ed:0d:e7:7b:1e:ce:67:01:
                    06:a1:39:4e:d9:f6:3c:a2:e9:58:f1:98:35:7d:d9:
                    fb:7a:a7:77:73:d8:a5:04:34:f1:de:f9:19:7c:1f:
                    3a:cc:ff:31:19:fb:ee:5f:6c:c4:a0:7d:c9:3d:e7:
                    30:62:6e:33:36:81:6d:40:42:4a:db:1b:14:8c:c5:
                    5d:b3:52:90:4d:bd:8d:50:cb:c1:e8:5d:20:f6:fb:
                    b5:a2:03:ac:fb:81:bd:39:f1:3a:eb:1c:58:e5:a3:
                    a2:80:d4:47:0a:f8:25:e3:f4:5d:1a:81:19:cb:dc:
                    ab:a0:5a:db:81:71:4a:bf:91:f9:4c:32:a0:3a:8b:
                    62:69:eb:2c:39:71:ad:e7:29:40:22:18:02:b3:8f:
                    96:48:0e:8b:42:b0:e6:7b:bd:07:7a:4c:ce:9e:94:
                    a9:71:f8:6f:c2:57:70:15:b6:b7:67:11:33:35:a8:
                    f9:57
                Exponent: 65537 (0x10001)
        X509v3 extensions:
            Netscape Cert Type:
                SSL Client, SSL Server, S/MIME, Object Signing
    Signature Algorithm: md5WithRSAEncryption
        2a:4d:61:37:6f:50:13:18:0e:36:04:73:35:78:0b:b5:e1:38:
        08:59:90:2e:3d:fe:50:4c:df:60:30:84:fc:ee:e9:c8:79:f7:
        90:22:de:11:df:f7:43:a7:73:e5:63:e0:fb:57:90:82:5a:2b:
        fa:34:67:5e:40:97:e5:e3:5e:54:91:3a:0e:70:e9:bc:55:40:
        74:f8:ad:7f:d0:46:06:af:f4:46:99:10:8b:32:b5:d1:a6:96:
        a7:20:bc:ac:7a:51:d8:b5:5a:fa:c8:61:53:a7:7f:ad:1f:55:
        ac:3f:75:02:e1:18:46:94:ba:59:5e:d4:a6:ac:d2:40:8a:f7:
        bc:95
-----BEGIN CERTIFICATE-----
MIICgTCCAeqgAwIBAgICAPkwDQYJKoZIhvcNAQEEBQAwLzEMMAoGA1UEChMDTkRH
MQ0wCwYDVQQLEwRCQURDMRAwDgYDVQQDEwdUZXN0IENBMB4XDTA4MDEwNDE0Mzky
OVoXDTA5MDEwMzE0MzkyOVowQjEMMAoGA1UEChMDTkRHMQ0wCwYDVQQLEwRCQURD
MRAwDgYDVQQLEwdHYWJyaWVsMREwDwYDVQQDEwh0ZXN0dXNlcjCCASIwDQYJKoZI
hvcNAQEBBQADggEPADCCAQoCggEBAOdL1ZgnNhthCgNzg3vO/8jMbpfa0aggwKmq
Yib2+RiIElRpPa6iYQxDQ3J1LzXTqn7cHyyLhT0DpH6/oszmXthSCP2LrZkbtMm7
CDTWj60i/e0N53sezmcBBqE5Ttn2PKLpWPGYNX3Z+3qnd3PYpQQ08d75GXwfOsz/
MRn77l9sxKB9yT3nMGJuMzaBbUBCStsbFIzFXbNSkE29jVDLwehdIPb7taIDrPuB
vTnxOuscWOWjooDURwr4JeP0XRqBGcvcq6Ba24FxSr+R+UwyoDqLYmnrLDlxrecp
QCIYArOPlkgOi0Kw5nu9B3pMzp6UqXH4b8JXcBW2t2cRMzWo+VcCAwEAAaMVMBMw
EQYJYIZIAYb4QgEBBAQDAgTwMA0GCSqGSIb3DQEBBAUAA4GBACpNYTdvUBMYDjYE
czV4C7XhOAhZkC49/lBM32AwhPzu6ch595Ai3hHf90Onc+Vj4PtXkIJaK/o0Z15A
l+XjXlSROg5w6bxVQHT4rX/QRgav9EaZEIsytdGmlqcgvKx6Udi1WvrIYVOnf60f
Vaw/dQLhGEaUulle1Kas0kCK97yV
-----END CERTIFICATE-----