Certificate:
    Data:
        Version: 3 (0x2)
        Serial Number: 247 (0xf7)
        Signature Algorithm: md5WithRSAEncryption
        Issuer: O=NDG, OU=BADC, CN=Test CA
        Validity
            Not Before: Jan  4 10:19:47 2008 GMT
            Not After : Jan  3 10:19:47 2009 GMT
        Subject: O=NDG, OU=BADC, CN=test
        Subject Public Key Info:
            Public Key Algorithm: rsaEncryption
            RSA Public Key: (2048 bit)
                Modulus (2048 bit):
                    00:ae:96:ee:35:41:d6:55:1c:21:8c:7c:e1:4c:e7:
                    72:9b:e7:dc:65:d9:83:ec:76:da:7a:81:5d:79:fd:
                    95:ff:f5:a3:e3:5c:4c:89:e3:19:cb:d5:d0:7e:dd:
                    9d:14:10:d8:64:81:cb:12:5a:23:56:16:53:1e:8a:
                    30:32:4c:17:c6:c9:8b:b7:b8:59:17:c7:cb:ee:3d:
                    ec:b1:4f:e5:7e:53:3d:13:45:24:d9:d6:71:68:0b:
                    7d:ef:35:c4:ae:e1:07:26:83:6a:1d:31:10:94:7d:
                    2a:30:02:df:b9:4a:c0:69:91:08:5c:70:dd:4d:00:
                    cd:44:99:78:a1:7b:e3:25:66:aa:4b:c6:39:25:ef:
                    10:44:44:e1:20:4e:61:45:df:45:a1:49:60:7c:c3:
                    4d:9f:0c:cb:c8:81:fb:b3:42:81:72:2d:b2:af:27:
                    ae:6c:01:bf:42:28:39:2e:4b:a5:6e:99:e1:c5:82:
                    c2:70:bb:ec:dd:31:d0:de:43:b9:a9:86:1b:07:48:
                    35:d5:83:81:82:c8:59:d1:2a:4d:c0:41:32:84:3c:
                    c7:52:dd:c8:8b:65:e6:02:1d:b9:fc:82:34:f0:14:
                    7a:d5:f8:4c:66:f4:89:fe:d5:46:25:8e:07:7d:61:
                    bb:07:83:d9:cd:8c:28:e6:f9:ff:b5:81:f5:9a:4e:
                    f0:e5
                Exponent: 65537 (0x10001)
        X509v3 extensions:
            Netscape Cert Type:
                SSL Client, SSL Server, S/MIME, Object Signing
    Signature Algorithm: md5WithRSAEncryption
        14:a1:1d:af:61:70:96:9a:2c:00:64:43:1c:13:17:f5:de:3c:
        4c:a9:b5:81:7c:ce:30:4b:d1:79:36:08:6a:ae:3a:68:ca:43:
        0e:e0:29:b1:b8:e9:46:aa:21:bc:a2:2b:9e:01:9a:d9:ed:69:
        f3:5b:4e:4c:be:64:6e:eb:ac:36:37:0d:b1:a8:17:90:d8:1e:
        3b:aa:9c:19:90:a5:cb:f0:65:f4:ac:5f:ca:76:a7:79:de:63:
        9a:05:a0:a3:12:4f:ed:5b:4e:ca:7b:e5:2e:a2:5f:ad:2f:dc:
        13:03:96:0d:8a:72:3e:32:43:47:1d:9c:66:01:1d:dc:fe:16:
        7d:82
-----BEGIN CERTIFICATE-----
MIICazCCAdSgAwIBAgICAPcwDQYJKoZIhvcNAQEEBQAwLzEMMAoGA1UEChMDTkRH
MQ0wCwYDVQQLEwRCQURDMRAwDgYDVQQDEwdUZXN0IENBMB4XDTA4MDEwNDEwMTk0
N1oXDTA5MDEwMzEwMTk0N1owLDEMMAoGA1UEChMDTkRHMQ0wCwYDVQQLEwRCQURD
MQ0wCwYDVQQDEwR0ZXN0MIIBIjANBgkqhkiG9w0BAQEFAAOCAQ8AMIIBCgKCAQEA
rpbuNUHWVRwhjHzhTOdym+fcZdmD7HbaeoFdef2V//Wj41xMieMZy9XQft2dFBDY
ZIHLElojVhZTHoowMkwXxsmLt7hZF8fL7j3ssU/lflM9E0Uk2dZxaAt97zXEruEH
JoNqHTEQlH0qMALfuUrAaZEIXHDdTQDNRJl4oXvjJWaqS8Y5Je8QREThIE5hRd9F
oUlgfMNNnwzLyIH7s0KBci2yryeubAG/Qig5LkulbpnhxYLCcLvs3THQ3kO5qYYb
B0g11YOBgshZ0SpNwEEyhDzHUt3Ii2XmAh25/II08BR61fhMZvSJ/tVGJY4HfWG7
B4PZzYwo5vn/tYH1mk7w5QIDAQABoxUwEzARBglghkgBhvhCAQEEBAMCBPAwDQYJ
KoZIhvcNAQEEBQADgYEAFKEdr2FwlposAGRDHBMX9d48TKm1gXzOMEvReTYIaq46
aMpDDuApsbjpRqohvKIrngGa2e1p81tOTL5kbuusNjcNsagXkNgeO6qcGZCly/Bl
9Kxfynaned5jmgWgoxJP7VtOynvlLqJfrS/cEwOWDYpyPjJDRx2cZgEd3P4WfYI=
-----END CERTIFICATE-----
