Certificate:
    Data:
        Version: 3 (0x2)
        Serial Number: 257 (0x101)
        Signature Algorithm: md5WithRSAEncryption
        Issuer: O=NDG, OU=BADC, CN=Test CA
        Validity
            Not Before: Dec 16 15:11:48 2008 GMT
            Not After : Dec 15 15:11:48 2013 GMT
        Subject: O=NDG, OU=BADC, CN=test
        Subject Public Key Info:
            Public Key Algorithm: rsaEncryption
            RSA Public Key: (2048 bit)
                Modulus (2048 bit):
                    00:ae:96:ee:35:41:d6:55:1c:21:8c:7c:e1:4c:e7:
                    72:9b:e7:dc:65:d9:83:ec:76:da:7a:81:5d:79:fd:
                    95:ff:f5:a3:e3:5c:4c:89:e3:19:cb:d5:d0:7e:dd:
                    9d:14:10:d8:64:81:cb:12:5a:23:56:16:53:1e:8a:
                    30:32:4c:17:c6:c9:8b:b7:b8:59:17:c7:cb:ee:3d:
                    ec:b1:4f:e5:7e:53:3d:13:45:24:d9:d6:71:68:0b:
                    7d:ef:35:c4:ae:e1:07:26:83:6a:1d:31:10:94:7d:
                    2a:30:02:df:b9:4a:c0:69:91:08:5c:70:dd:4d:00:
                    cd:44:99:78:a1:7b:e3:25:66:aa:4b:c6:39:25:ef:
                    10:44:44:e1:20:4e:61:45:df:45:a1:49:60:7c:c3:
                    4d:9f:0c:cb:c8:81:fb:b3:42:81:72:2d:b2:af:27:
                    ae:6c:01:bf:42:28:39:2e:4b:a5:6e:99:e1:c5:82:
                    c2:70:bb:ec:dd:31:d0:de:43:b9:a9:86:1b:07:48:
                    35:d5:83:81:82:c8:59:d1:2a:4d:c0:41:32:84:3c:
                    c7:52:dd:c8:8b:65:e6:02:1d:b9:fc:82:34:f0:14:
                    7a:d5:f8:4c:66:f4:89:fe:d5:46:25:8e:07:7d:61:
                    bb:07:83:d9:cd:8c:28:e6:f9:ff:b5:81:f5:9a:4e:
                    f0:e5
                Exponent: 65537 (0x10001)
        X509v3 extensions:
            Netscape Cert Type: 
                SSL Client, SSL Server, S/MIME, Object Signing
    Signature Algorithm: md5WithRSAEncryption
        3c:2d:44:82:80:fd:03:ef:4e:eb:43:f9:52:cd:eb:0c:28:6f:
        47:6c:76:7f:cb:97:ff:bc:3e:dc:69:4d:05:cd:00:ed:40:f4:
        65:41:04:9e:05:26:9e:f9:1c:9b:56:13:38:2c:23:dc:42:0d:
        9e:f3:fa:4b:a0:25:c6:3e:ac:d9:7f:2d:2d:63:d4:19:32:d5:
        bb:6a:7d:dd:7e:72:ed:19:d8:93:a8:ac:48:4a:18:8f:39:b0:
        fc:b8:9a:c9:01:f3:ae:6f:fb:84:d4:76:d1:30:04:fd:ac:44:
        5b:ba:d2:ea:ce:dc:47:2e:70:54:35:15:d1:53:4c:41:0b:89:
        71:28
-----BEGIN CERTIFICATE-----
MIICazCCAdSgAwIBAgICAQEwDQYJKoZIhvcNAQEEBQAwLzEMMAoGA1UEChMDTkRH
MQ0wCwYDVQQLEwRCQURDMRAwDgYDVQQDEwdUZXN0IENBMB4XDTA4MTIxNjE1MTE0
OFoXDTEzMTIxNTE1MTE0OFowLDEMMAoGA1UEChMDTkRHMQ0wCwYDVQQLEwRCQURD
MQ0wCwYDVQQDEwR0ZXN0MIIBIjANBgkqhkiG9w0BAQEFAAOCAQ8AMIIBCgKCAQEA
rpbuNUHWVRwhjHzhTOdym+fcZdmD7HbaeoFdef2V//Wj41xMieMZy9XQft2dFBDY
ZIHLElojVhZTHoowMkwXxsmLt7hZF8fL7j3ssU/lflM9E0Uk2dZxaAt97zXEruEH
JoNqHTEQlH0qMALfuUrAaZEIXHDdTQDNRJl4oXvjJWaqS8Y5Je8QREThIE5hRd9F
oUlgfMNNnwzLyIH7s0KBci2yryeubAG/Qig5LkulbpnhxYLCcLvs3THQ3kO5qYYb
B0g11YOBgshZ0SpNwEEyhDzHUt3Ii2XmAh25/II08BR61fhMZvSJ/tVGJY4HfWG7
B4PZzYwo5vn/tYH1mk7w5QIDAQABoxUwEzARBglghkgBhvhCAQEEBAMCBPAwDQYJ
KoZIhvcNAQEEBQADgYEAPC1EgoD9A+9O60P5Us3rDChvR2x2f8uX/7w+3GlNBc0A
7UD0ZUEEngUmnvkcm1YTOCwj3EINnvP6S6Alxj6s2X8tLWPUGTLVu2p93X5y7RnY
k6isSEoYjzmw/LiayQHzrm/7hNR20TAE/axEW7rS6s7cRy5wVDUV0VNMQQuJcSg=
-----END CERTIFICATE-----
