Certificate:
    Data:
        Version: 3 (0x2)
        Serial Number: 356 (0x164)
        Signature Algorithm: md5WithRSAEncryption
        Issuer: O=NDG, OU=BADC, CN=SimpleCA
        Validity
            Not Before: Aug  7 07:17:40 2008 GMT
            Not After : Aug  7 07:17:40 2009 GMT
        Subject: C=UK, ST=Unknown, O=BADC, OU=Unknown, CN=Calum Byrom
        Subject Public Key Info:
            Public Key Algorithm: rsaEncryption
            RSA Public Key: (1024 bit)
                Modulus (1024 bit):
                    00:89:a3:91:f7:03:86:24:13:73:0b:94:5b:b1:d7:
                    88:ff:26:0d:b5:6a:55:40:d7:33:63:16:bf:d8:f2:
                    4d:7c:f1:f8:33:39:cf:ce:5b:c5:87:b2:ae:00:20:
                    54:ce:cb:0d:0d:31:07:27:20:0a:57:cb:44:e8:36:
                    7c:f6:5f:9c:74:1e:3d:17:97:cb:df:a4:83:6a:6a:
                    0f:82:29:68:59:a5:cc:53:d7:44:0c:94:ec:f9:b5:
                    04:0c:d9:ec:af:9c:96:35:7f:fe:f1:56:5f:e9:ab:
                    e2:95:78:4b:43:86:8d:4c:03:b3:87:0d:10:91:ac:
                    1b:e0:58:cb:36:cf:95:4e:af
                Exponent: 65537 (0x10001)
        X509v3 extensions:
            Netscape Cert Type: 
                SSL Client, SSL Server, S/MIME, Object Signing
    Signature Algorithm: md5WithRSAEncryption
        1f:e3:66:d6:8e:89:ae:15:df:3b:58:1f:80:e9:f7:6f:97:85:
        11:9b:19:55:a9:eb:0d:94:16:b7:c4:45:fe:31:e5:09:81:f0:
        56:62:e3:d4:2b:d4:be:11:85:80:e8:7a:c1:84:72:02:75:9c:
        0b:59:c3:45:62:99:ff:c2:41:56:94:46:9c:cd:b7:c9:5a:38:
        e7:67:bd:05:5d:10:1f:4a:2b:32:a3:4f:e0:d0:71:fa:01:d9:
        ac:d4:3f:c5:42:03:87:cc:04:c0:f8:e6:85:92:a9:da:18:80:
        02:7c:f8:fb:bb:c9:0d:33:cc:83:bd:7a:61:3d:29:8e:9c:48:
        44:f1
-----BEGIN CERTIFICATE-----
MIICEjCCAXugAwIBAgICAWQwDQYJKoZIhvcNAQEEBQAwMDEMMAoGA1UEChMDTkRH
MQ0wCwYDVQQLEwRCQURDMREwDwYDVQQDEwhTaW1wbGVDQTAeFw0wODA4MDcwNzE3
NDBaFw0wOTA4MDcwNzE3NDBaMFYxCzAJBgNVBAYTAlVLMRAwDgYDVQQIEwdVbmtu
b3duMQ0wCwYDVQQKEwRCQURDMRAwDgYDVQQLEwdVbmtub3duMRQwEgYDVQQDEwtD
YWx1bSBCeXJvbTCBnzANBgkqhkiG9w0BAQEFAAOBjQAwgYkCgYEAiaOR9wOGJBNz
C5RbsdeI/yYNtWpVQNczYxa/2PJNfPH4MznPzlvFh7KuACBUzssNDTEHJyAKV8tE
6DZ89l+cdB49F5fL36SDamoPgiloWaXMU9dEDJTs+bUEDNnsr5yWNX/+8VZf6avi
lXhLQ4aNTAOzhw0Qkawb4FjLNs+VTq8CAwEAAaMVMBMwEQYJYIZIAYb4QgEBBAQD
AgTwMA0GCSqGSIb3DQEBBAUAA4GBAB/jZtaOia4V3ztYH4Dp92+XhRGbGVWp6w2U
FrfERf4x5QmB8FZi49Qr1L4RhYDoesGEcgJ1nAtZw0Vimf/CQVaURpzNt8laOOdn
vQVdEB9KKzKjT+DQcfoB2azUP8VCA4fMBMD45oWSqdoYgAJ8+Pu7yQ0zzIO9emE9
KY6cSETx
-----END CERTIFICATE-----
