Certificate:
    Data:
        Version: 3 (0x2)
        Serial Number: 243 (0xf3)
        Signature Algorithm: md5WithRSAEncryption
        Issuer: O=NDG, OU=BADC, CN=Test CA
        Validity
            Not Before: Dec 18 11:42:41 2007 GMT
            Not After : Dec 17 11:42:41 2008 GMT
        Subject: O=NDG Security Test, OU=WS-Security Unittest, CN=client
        Subject Public Key Info:
            Public Key Algorithm: rsaEncryption
            RSA Public Key: (2048 bit)
                Modulus (2048 bit):
                    00:98:ec:21:5f:e4:60:06:18:91:18:df:c5:6e:92:
                    3d:14:35:f6:ff:43:bf:32:0a:e7:2c:27:46:90:2c:
                    a6:fe:22:d1:ef:51:1a:94:d9:7f:d6:12:68:8d:2d:
                    af:74:55:0e:01:04:5a:18:8a:e1:58:b4:0c:aa:c6:
                    e6:e7:a7:59:b5:5c:cf:7b:88:9a:d4:c2:8f:39:0b:
                    0e:ff:14:ab:cc:d2:04:64:2d:bb:db:3e:b6:03:55:
                    cc:bb:10:7b:e3:ac:1f:4e:da:68:44:16:8c:fa:b2:
                    fa:9d:b5:d9:9a:b2:63:86:d4:91:1a:81:d9:9f:26:
                    b4:0b:ba:21:b9:86:bb:0f:c4:20:3f:f2:e7:0b:c4:
                    7e:05:9e:67:0c:87:99:11:a3:43:30:95:79:6f:6b:
                    9f:36:47:35:91:58:a8:0e:da:f0:ce:9a:db:e2:b5:
                    7b:7d:1c:9c:1d:09:96:cf:98:fc:b1:b3:a4:93:bc:
                    51:cc:66:bb:b5:99:8e:5d:8f:56:16:4f:c3:c1:4f:
                    94:af:9a:9a:3f:10:48:8b:f9:36:5c:b5:c5:c4:49:
                    14:52:57:1b:bd:f7:24:41:27:47:fd:35:df:08:3f:
                    1b:6e:cb:22:15:5f:8f:b1:7e:03:8b:ac:da:15:42:
                    e2:15:e6:f2:93:09:98:79:46:b5:a3:a5:b9:3f:d1:
                    ea:8d
                Exponent: 65537 (0x10001)
        X509v3 extensions:
            Netscape Cert Type:
                SSL Client, SSL Server, S/MIME, Object Signing
    Signature Algorithm: md5WithRSAEncryption
        c1:2b:11:0e:c3:fe:3e:f2:87:ee:48:e5:f1:29:9c:1f:a3:d8:
        eb:f9:3a:d4:af:75:c7:b4:39:e0:b2:83:5e:ee:71:7c:fc:28:
        73:fb:e4:62:7e:96:7b:f1:c3:b7:a4:94:b5:f7:41:a4:32:6a:
        16:4b:8c:60:36:0c:c1:79:62:51:aa:79:fa:1e:8c:a0:82:58:
        28:c6:cf:da:9b:79:eb:3a:f3:bf:e2:4a:8e:c2:f3:55:3f:b9:
        c6:0e:55:ea:a9:79:9e:3c:d2:d1:07:6c:81:90:2f:a9:54:ba:
        4a:7e:3c:f0:7c:86:c5:e0:b3:71:a5:48:a8:77:e3:83:b6:48:
        6d:78
-----BEGIN CERTIFICATE-----
MIICizCCAfSgAwIBAgICAPMwDQYJKoZIhvcNAQEEBQAwLzEMMAoGA1UEChMDTkRH
MQ0wCwYDVQQLEwRCQURDMRAwDgYDVQQDEwdUZXN0IENBMB4XDTA3MTIxODExNDI0
MVoXDTA4MTIxNzExNDI0MVowTDEaMBgGA1UEChMRTkRHIFNlY3VyaXR5IFRlc3Qx
HTAbBgNVBAsTFFdTLVNlY3VyaXR5IFVuaXR0ZXN0MQ8wDQYDVQQDEwZjbGllbnQw
ggEiMA0GCSqGSIb3DQEBAQUAA4IBDwAwggEKAoIBAQCY7CFf5GAGGJEY38Vukj0U
Nfb/Q78yCucsJ0aQLKb+ItHvURqU2X/WEmiNLa90VQ4BBFoYiuFYtAyqxubnp1m1
XM97iJrUwo85Cw7/FKvM0gRkLbvbPrYDVcy7EHvjrB9O2mhEFoz6svqdtdmasmOG
1JEagdmfJrQLuiG5hrsPxCA/8ucLxH4FnmcMh5kRo0MwlXlva582RzWRWKgO2vDO
mtvitXt9HJwdCZbPmPyxs6STvFHMZru1mY5dj1YWT8PBT5Svmpo/EEiL+TZctcXE
SRRSVxu99yRBJ0f9Nd8IPxtuyyIVX4+xfgOLrNoVQuIV5vKTCZh5RrWjpbk/0eqN
AgMBAAGjFTATMBEGCWCGSAGG+EIBAQQEAwIE8DANBgkqhkiG9w0BAQQFAAOBgQDB
KxEOw/4+8ofuSOXxKZwfo9jr+TrUr3XHtDngsoNe7nF8/Chz++RifpZ78cO3pJS1
90GkMmoWS4xgNgzBeWJRqnn6Hoygglgoxs/am3nrOvO/4kqOwvNVP7nGDlXqqXme
PNLRB2yBkC+pVLpKfjzwfIbF4LNxpUiod+ODtkhteA==
-----END CERTIFICATE-----
