Certificate:
    Data:
        Version: 3 (0x2)
        Serial Number: 244 (0xf4)
        Signature Algorithm: md5WithRSAEncryption
        Issuer: O=NDG, OU=BADC, CN=Test CA
        Validity
            Not Before: Dec 18 13:58:09 2007 GMT
            Not After : Dec 17 13:58:09 2008 GMT
        Subject: O=NDG Security Test, OU=WS-Security Unittest, CN=server
        Subject Public Key Info:
            Public Key Algorithm: rsaEncryption
            RSA Public Key: (2048 bit)
                Modulus (2048 bit):
                    00:ca:87:9c:86:8c:5e:a5:c5:ed:ce:2f:f8:35:95:
                    97:6a:6a:bd:67:8b:08:d1:53:dd:6d:d6:47:64:b5:
                    4f:60:e1:b4:01:c6:0e:21:16:c3:17:d2:76:fa:89:
                    62:94:5d:ed:3d:36:9b:ae:f0:a2:e2:69:08:7b:7f:
                    58:fe:88:c7:ef:17:29:25:64:56:b3:3b:7c:27:a4:
                    ee:0e:f7:98:ef:76:ca:ee:bb:b4:52:3f:53:2b:d6:
                    94:96:a9:3e:6b:13:e6:25:45:aa:be:ac:a9:1e:51:
                    6c:38:d5:dd:bf:44:2f:78:7e:94:3a:81:5c:8a:5d:
                    e3:df:49:6e:76:7e:54:1c:9a:b0:07:b9:11:bc:0f:
                    2c:50:19:25:a5:2c:3c:7a:52:e0:f3:09:f3:10:fc:
                    15:b9:68:45:6d:a5:72:0a:7f:27:ea:15:ba:5c:a6:
                    37:a6:c9:4f:39:47:a8:7b:2b:c4:3b:5a:6a:1a:f3:
                    8d:67:a7:e2:91:74:c4:a7:85:0e:95:5f:d3:dc:81:
                    f7:0d:74:d1:33:b1:5f:b3:c5:be:e4:6e:56:2a:25:
                    75:04:0c:55:a6:35:c2:66:76:85:8f:51:7c:0b:b6:
                    f7:40:df:0c:32:d7:99:3e:72:f2:d5:c3:75:f8:06:
                    6c:93:5e:ba:ca:ef:ab:8e:8d:ca:e8:78:f3:08:26:
                    91:eb
                Exponent: 65537 (0x10001)
        X509v3 extensions:
            Netscape Cert Type:
                SSL Client, SSL Server, S/MIME, Object Signing
    Signature Algorithm: md5WithRSAEncryption
        2b:b0:f6:d3:32:a7:61:d9:1e:07:39:8a:39:c9:7a:b4:dc:44:
        c3:50:ba:2b:67:f6:12:8a:c0:49:91:bd:f2:fb:3f:3f:a2:0e:
        21:5d:63:b6:73:90:2a:11:70:6b:d9:56:ce:29:b0:25:bb:13:
        2f:8a:9e:55:af:a0:7c:9e:73:96:81:17:09:1a:d0:30:f8:1c:
        34:34:ed:e3:7d:09:72:12:c7:37:37:8f:90:aa:79:55:6a:3a:
        28:2f:98:de:d0:06:42:3e:a2:5a:d2:f4:6f:5f:29:00:3d:b2:
        df:37:e7:17:f7:8a:a6:aa:82:e8:f9:21:47:84:9c:39:37:54:
        6d:16
-----BEGIN CERTIFICATE-----
MIICizCCAfSgAwIBAgICAPQwDQYJKoZIhvcNAQEEBQAwLzEMMAoGA1UEChMDTkRH
MQ0wCwYDVQQLEwRCQURDMRAwDgYDVQQDEwdUZXN0IENBMB4XDTA3MTIxODEzNTgw
OVoXDTA4MTIxNzEzNTgwOVowTDEaMBgGA1UEChMRTkRHIFNlY3VyaXR5IFRlc3Qx
HTAbBgNVBAsTFFdTLVNlY3VyaXR5IFVuaXR0ZXN0MQ8wDQYDVQQDEwZzZXJ2ZXIw
ggEiMA0GCSqGSIb3DQEBAQUAA4IBDwAwggEKAoIBAQDKh5yGjF6lxe3OL/g1lZdq
ar1niwjRU91t1kdktU9g4bQBxg4hFsMX0nb6iWKUXe09Npuu8KLiaQh7f1j+iMfv
FyklZFazO3wnpO4O95jvdsruu7RSP1Mr1pSWqT5rE+YlRaq+rKkeUWw41d2/RC94
fpQ6gVyKXePfSW52flQcmrAHuRG8DyxQGSWlLDx6UuDzCfMQ/BW5aEVtpXIKfyfq
FbpcpjemyU85R6h7K8Q7Wmoa841np+KRdMSnhQ6VX9PcgfcNdNEzsV+zxb7kblYq
JXUEDFWmNcJmdoWPUXwLtvdA3wwy15k+cvLVw3X4BmyTXrrK76uOjcroePMIJpHr
AgMBAAGjFTATMBEGCWCGSAGG+EIBAQQEAwIE8DANBgkqhkiG9w0BAQQFAAOBgQAr
sPbTMqdh2R4HOYo5yXq03ETDULorZ/YSisBJkb3y+z8/og4hXWO2c5AqEXBr2VbO
KbAluxMvip5Vr6B8nnOWgRcJGtAw+Bw0NO3jfQlyEsc3N4+QqnlVajooL5je0AZC
PqJa0vRvXykAPbLfN+cX94qmqoLo+SFHhJw5N1RtFg==
-----END CERTIFICATE-----
