Certificate:
    Data:
        Version: 3 (0x2)
        Serial Number: 148 (0x94)
        Signature Algorithm: md5WithRSAEncryption
        Issuer: O=NDG, OU=BADC, CN=Test CA
        Validity
            Not Before: Dec 12 16:25:29 2007 GMT
            Not After : Dec 11 16:25:29 2008 GMT
        Subject: O=NDG Security Test, OU=Site A, CN=SessionManager
        Subject Public Key Info:
            Public Key Algorithm: rsaEncryption
            RSA Public Key: (2048 bit)
                Modulus (2048 bit):
                    00:9c:1e:31:95:e1:42:d9:01:f6:e6:7c:06:40:59:
                    94:3a:08:b6:46:ac:72:2f:77:b5:53:40:ac:23:63:
                    6d:a6:a9:2b:eb:33:a8:d7:59:40:ba:fb:bf:6e:d1:
                    be:d7:b5:67:27:5d:68:ef:18:7d:4d:23:77:e8:08:
                    41:b7:7e:6c:3b:48:7f:88:d4:bd:80:88:50:b6:8f:
                    a9:8f:36:ba:e3:ba:2f:30:09:90:bd:9c:d7:21:b4:
                    8c:5e:0d:84:06:6f:ed:42:da:5e:88:19:a5:77:4b:
                    83:29:66:dd:5d:09:ca:1b:26:5a:d7:ce:81:2a:af:
                    82:db:0d:a9:53:d1:93:bd:96:f6:a9:db:c2:40:d1:
                    d3:72:6a:1b:45:32:31:23:42:4b:26:81:39:c8:e8:
                    a9:20:c2:04:e6:44:1a:97:d1:75:a4:a5:04:1e:3a:
                    c0:26:91:59:9c:62:b7:38:52:e0:d0:79:3f:b6:7c:
                    52:21:d4:fe:c3:05:48:4a:2d:32:3a:5e:b9:e9:3f:
                    53:2b:18:12:e2:12:43:dd:0b:a5:8a:00:07:29:0d:
                    59:a4:66:2c:80:20:f0:47:d5:cb:54:c5:42:fa:2e:
                    ca:a4:ab:69:53:d9:5b:c0:31:c5:aa:67:57:c8:5a:
                    d6:9d:0b:14:e8:db:c6:5c:74:58:f2:1c:1a:85:de:
                    a9:57
                Exponent: 65537 (0x10001)
        X509v3 extensions:
            Netscape Cert Type:
                SSL Client, SSL Server, S/MIME, Object Signing
    Signature Algorithm: md5WithRSAEncryption
        89:35:41:c8:b8:11:b4:53:f2:32:47:38:20:81:f0:92:3d:03:
        0c:70:07:99:6b:d2:28:51:80:8d:89:5b:15:e7:e2:5f:82:66:
        ed:33:4b:3b:ea:76:8c:a7:ea:32:c9:de:5f:6a:63:84:9f:af:
        63:0e:06:8a:37:44:67:58:a4:51:c7:f5:6f:70:30:de:4d:d9:
        c7:64:33:00:d6:5e:27:6d:9b:b2:38:c9:99:db:8a:77:9b:8f:
        2e:4c:94:74:29:14:8a:f8:66:90:4e:56:6c:4a:8a:b0:86:ce:
        12:1f:a3:55:dc:d9:c0:6d:d2:aa:84:de:86:c9:af:55:00:4a:
        fe:ba
-----BEGIN CERTIFICATE-----
MIIChTCCAe6gAwIBAgICAJQwDQYJKoZIhvcNAQEEBQAwLzEMMAoGA1UEChMDTkRH
MQ0wCwYDVQQLEwRCQURDMRAwDgYDVQQDEwdUZXN0IENBMB4XDTA3MTIxMjE2MjUy
OVoXDTA4MTIxMTE2MjUyOVowRjEaMBgGA1UEChMRTkRHIFNlY3VyaXR5IFRlc3Qx
DzANBgNVBAsTBlNpdGUgQTEXMBUGA1UEAxMOU2Vzc2lvbk1hbmFnZXIwggEiMA0G
CSqGSIb3DQEBAQUAA4IBDwAwggEKAoIBAQCcHjGV4ULZAfbmfAZAWZQ6CLZGrHIv
d7VTQKwjY22mqSvrM6jXWUC6+79u0b7XtWcnXWjvGH1NI3foCEG3fmw7SH+I1L2A
iFC2j6mPNrrjui8wCZC9nNchtIxeDYQGb+1C2l6IGaV3S4MpZt1dCcobJlrXzoEq
r4LbDalT0ZO9lvap28JA0dNyahtFMjEjQksmgTnI6KkgwgTmRBqX0XWkpQQeOsAm
kVmcYrc4UuDQeT+2fFIh1P7DBUhKLTI6XrnpP1MrGBLiEkPdC6WKAAcpDVmkZiyA
IPBH1ctUxUL6Lsqkq2lT2VvAMcWqZ1fIWtadCxTo28ZcdFjyHBqF3qlXAgMBAAGj
FTATMBEGCWCGSAGG+EIBAQQEAwIE8DANBgkqhkiG9w0BAQQFAAOBgQCJNUHIuBG0
U/IyRzgggfCSPQMMcAeZa9IoUYCNiVsV5+JfgmbtM0s76naMp+oyyd5famOEn69j
DgaKN0RnWKRRx/VvcDDeTdnHZDMA1l4nbZuyOMmZ24p3m48uTJR0KRSK+GaQTlZs
Soqwhs4SH6NV3NnAbdKqhN6Gya9VAEr+ug==
-----END CERTIFICATE-----
