Certificate:
    Data:
        Version: 3 (0x2)
        Serial Number: 259 (0x103)
        Signature Algorithm: md5WithRSAEncryption
        Issuer: O=NDG, OU=BADC, CN=Test CA
        Validity
            Not Before: Dec 16 15:19:45 2008 GMT
            Not After : Dec 15 15:19:45 2013 GMT
        Subject: O=NDG Security Test, OU=WS-Security Unittest, CN=client
        Subject Public Key Info:
            Public Key Algorithm: rsaEncryption
            RSA Public Key: (2048 bit)
                Modulus (2048 bit):
                    00:98:ec:21:5f:e4:60:06:18:91:18:df:c5:6e:92:
                    3d:14:35:f6:ff:43:bf:32:0a:e7:2c:27:46:90:2c:
                    a6:fe:22:d1:ef:51:1a:94:d9:7f:d6:12:68:8d:2d:
                    af:74:55:0e:01:04:5a:18:8a:e1:58:b4:0c:aa:c6:
                    e6:e7:a7:59:b5:5c:cf:7b:88:9a:d4:c2:8f:39:0b:
                    0e:ff:14:ab:cc:d2:04:64:2d:bb:db:3e:b6:03:55:
                    cc:bb:10:7b:e3:ac:1f:4e:da:68:44:16:8c:fa:b2:
                    fa:9d:b5:d9:9a:b2:63:86:d4:91:1a:81:d9:9f:26:
                    b4:0b:ba:21:b9:86:bb:0f:c4:20:3f:f2:e7:0b:c4:
                    7e:05:9e:67:0c:87:99:11:a3:43:30:95:79:6f:6b:
                    9f:36:47:35:91:58:a8:0e:da:f0:ce:9a:db:e2:b5:
                    7b:7d:1c:9c:1d:09:96:cf:98:fc:b1:b3:a4:93:bc:
                    51:cc:66:bb:b5:99:8e:5d:8f:56:16:4f:c3:c1:4f:
                    94:af:9a:9a:3f:10:48:8b:f9:36:5c:b5:c5:c4:49:
                    14:52:57:1b:bd:f7:24:41:27:47:fd:35:df:08:3f:
                    1b:6e:cb:22:15:5f:8f:b1:7e:03:8b:ac:da:15:42:
                    e2:15:e6:f2:93:09:98:79:46:b5:a3:a5:b9:3f:d1:
                    ea:8d
                Exponent: 65537 (0x10001)
        X509v3 extensions:
            Netscape Cert Type: 
                SSL Client, SSL Server, S/MIME, Object Signing
    Signature Algorithm: md5WithRSAEncryption
        63:11:bf:8c:fe:88:3a:7d:12:1e:c1:ea:90:f6:11:33:f2:7d:
        1d:2b:f3:22:3d:72:fb:1b:35:ed:cc:55:79:0e:98:13:41:cf:
        44:5e:c7:88:75:08:b4:b2:2b:ad:11:0e:0b:2e:49:21:41:18:
        6b:e9:2f:77:6d:27:4b:17:85:c8:fa:7b:91:45:97:a4:2d:f3:
        24:4e:1e:be:c5:e5:bc:ca:fd:dc:b2:e9:e1:b1:8a:f0:c1:4f:
        f9:c9:14:f8:c3:c2:98:66:fa:04:82:f1:8d:68:59:17:1f:f2:
        bf:34:f7:c6:3c:85:9b:80:c6:bc:2f:66:2e:0e:f4:24:7c:d8:
        9e:5f
-----BEGIN CERTIFICATE-----
MIICizCCAfSgAwIBAgICAQMwDQYJKoZIhvcNAQEEBQAwLzEMMAoGA1UEChMDTkRH
MQ0wCwYDVQQLEwRCQURDMRAwDgYDVQQDEwdUZXN0IENBMB4XDTA4MTIxNjE1MTk0
NVoXDTEzMTIxNTE1MTk0NVowTDEaMBgGA1UEChMRTkRHIFNlY3VyaXR5IFRlc3Qx
HTAbBgNVBAsTFFdTLVNlY3VyaXR5IFVuaXR0ZXN0MQ8wDQYDVQQDEwZjbGllbnQw
ggEiMA0GCSqGSIb3DQEBAQUAA4IBDwAwggEKAoIBAQCY7CFf5GAGGJEY38Vukj0U
Nfb/Q78yCucsJ0aQLKb+ItHvURqU2X/WEmiNLa90VQ4BBFoYiuFYtAyqxubnp1m1
XM97iJrUwo85Cw7/FKvM0gRkLbvbPrYDVcy7EHvjrB9O2mhEFoz6svqdtdmasmOG
1JEagdmfJrQLuiG5hrsPxCA/8ucLxH4FnmcMh5kRo0MwlXlva582RzWRWKgO2vDO
mtvitXt9HJwdCZbPmPyxs6STvFHMZru1mY5dj1YWT8PBT5Svmpo/EEiL+TZctcXE
SRRSVxu99yRBJ0f9Nd8IPxtuyyIVX4+xfgOLrNoVQuIV5vKTCZh5RrWjpbk/0eqN
AgMBAAGjFTATMBEGCWCGSAGG+EIBAQQEAwIE8DANBgkqhkiG9w0BAQQFAAOBgQBj
Eb+M/og6fRIeweqQ9hEz8n0dK/MiPXL7GzXtzFV5DpgTQc9EXseIdQi0siutEQ4L
LkkhQRhr6S93bSdLF4XI+nuRRZekLfMkTh6+xeW8yv3csunhsYrwwU/5yRT4w8KY
ZvoEgvGNaFkXH/K/NPfGPIWbgMa8L2YuDvQkfNieXw==
-----END CERTIFICATE-----
